; Function Attrs: nounwind uwtable
define ptr @Abc_NtkRetimePrepareLatches(ptr noundef readonly captures(none) %0) local_unnamed_addr #0 {
  %2 = getelementptr i8, ptr %0, i64 80
  %.val26 = load ptr, ptr %2, align 8, !tbaa !27
  %3 = getelementptr i8, ptr %.val26, i64 4
  %.val26.val = load i32, ptr %3, align 4, !tbaa !25
  %4 = getelementptr i8, ptr %0, i64 128
  %.val = load i32, ptr %4, align 8, !tbaa !3
  %.neg = sub i32 %.val, %.val26.val
  %5 = tail call ptr @st__init_table(ptr noundef nonnull @st__ptrcmp, ptr noundef nonnull @st__ptrhash) #9
  %6 = load ptr, ptr %2, align 8, !tbaa !27
  %7 = getelementptr i8, ptr %6, i64 4
  %.val2538 = load i32, ptr %7, align 4, !tbaa !25
  %8 = icmp sgt i32 %.val2538, 0
  br i1 %8, label %.lr.ph, label %.critedge

.lr.ph:                                           ; preds = %1, %49
  %9 = phi ptr [ %50, %49 ], [ %6, %1 ]
  %indvars.iv = phi i64 [ %indvars.iv.next, %49 ], [ 0, %1 ]
  %10 = getelementptr i8, ptr %9, i64 8
  %.val27.val = load ptr, ptr %10, align 8, !tbaa !28
  %11 = getelementptr inbounds nuw ptr, ptr %.val27.val, i64 %indvars.iv
  %12 = load ptr, ptr %11, align 8, !tbaa !29
  %13 = getelementptr i8, ptr %12, i64 20
  %.val28 = load i32, ptr %13, align 4
  %14 = and i32 %.val28, 15
  %.not = icmp eq i32 %14, 8
  br i1 %.not, label %15, label %49

15:                                               ; preds = %.lr.ph
  %16 = trunc nuw nsw i64 %indvars.iv to i32
  %17 = add i32 %.neg, %16
  %18 = sext i32 %17 to i64
  %19 = inttoptr i64 %18 to ptr
  %20 = tail call i32 @st__insert(ptr noundef %5, ptr noundef nonnull %12, ptr noundef %19) #9
  %.val29 = load ptr, ptr %12, align 8, !tbaa !33
  %21 = getelementptr i8, ptr %12, i64 32
  %.val30 = load ptr, ptr %21, align 8, !tbaa !41
  %22 = getelementptr i8, ptr %.val29, i64 32
  %.val29.val = load ptr, ptr %22, align 8, !tbaa !7
  %.val30.val = load i32, ptr %.val30, align 4, !tbaa !3
  %23 = getelementptr i8, ptr %.val29.val, i64 8
  %.val29.val.val = load ptr, ptr %23, align 8, !tbaa !28
  %24 = sext i32 %.val30.val to i64
  %25 = getelementptr inbounds ptr, ptr %.val29.val.val, i64 %24
  %26 = load ptr, ptr %25, align 8, !tbaa !29
  %.val31 = load ptr, ptr %26, align 8, !tbaa !33
  %27 = getelementptr i8, ptr %26, i64 32
  %.val32 = load ptr, ptr %27, align 8, !tbaa !41
  %28 = getelementptr i8, ptr %.val31, i64 32
  %.val31.val = load ptr, ptr %28, align 8, !tbaa !7
  %.val32.val = load i32, ptr %.val32, align 4, !tbaa !3
  %29 = getelementptr i8, ptr %.val31.val, i64 8
  %.val31.val.val = load ptr, ptr %29, align 8, !tbaa !28
  %30 = sext i32 %.val32.val to i64
  %31 = getelementptr inbounds ptr, ptr %.val31.val.val, i64 %30
  %32 = load ptr, ptr %31, align 8, !tbaa !29
  tail call void @Abc_ObjTransferFanout(ptr noundef nonnull %26, ptr noundef %32) #9
  tail call void @Abc_ObjDeleteFanin(ptr noundef nonnull %26, ptr noundef %32) #9
  %.val35 = load ptr, ptr %12, align 8, !tbaa !33
  %33 = getelementptr i8, ptr %12, i64 48
  %.val36 = load ptr, ptr %33, align 8, !tbaa !34
  %34 = getelementptr i8, ptr %.val35, i64 32
  %.val35.val = load ptr, ptr %34, align 8, !tbaa !7
  %.val36.val = load i32, ptr %.val36, align 4, !tbaa !3
  %35 = getelementptr i8, ptr %.val35.val, i64 8
  %.val35.val.val = load ptr, ptr %35, align 8, !tbaa !28
  %36 = sext i32 %.val36.val to i64
  %37 = getelementptr inbounds ptr, ptr %.val35.val.val, i64 %36
  %38 = load ptr, ptr %37, align 8, !tbaa !29
  %.val33 = load ptr, ptr %38, align 8, !tbaa !33
  %39 = getelementptr i8, ptr %38, i64 32
  %.val34 = load ptr, ptr %39, align 8, !tbaa !41
  %40 = getelementptr i8, ptr %.val33, i64 32
  %.val33.val = load ptr, ptr %40, align 8, !tbaa !7
  %.val34.val = load i32, ptr %.val34, align 4, !tbaa !3
  %41 = getelementptr i8, ptr %.val33.val, i64 8
  %.val33.val.val = load ptr, ptr %41, align 8, !tbaa !28
  %42 = sext i32 %.val34.val to i64
  %43 = getelementptr inbounds ptr, ptr %.val33.val.val, i64 %42
  %44 = load ptr, ptr %43, align 8, !tbaa !29
  %45 = getelementptr i8, ptr %38, i64 44
  %.val37 = load i32, ptr %45, align 4, !tbaa !30
  %46 = icmp sgt i32 %.val37, 0
  br i1 %46, label %47, label %48

47:                                               ; preds = %15
  tail call void @Abc_ObjTransferFanout(ptr noundef nonnull %38, ptr noundef %44) #9
  br label %48

48:                                               ; preds = %47, %15
  tail call void @Abc_ObjDeleteFanin(ptr noundef nonnull %38, ptr noundef %44) #9
  %.pre = load ptr, ptr %2, align 8, !tbaa !27
  br label %49

49:                                               ; preds = %48, %.lr.ph
  %50 = phi ptr [ %.pre, %48 ], [ %9, %.lr.ph ]
  %indvars.iv.next = add nuw nsw i64 %indvars.iv, 1
  %51 = getelementptr i8, ptr %50, i64 4
  %.val25 = load i32, ptr %51, align 4, !tbaa !25
  %52 = sext i32 %.val25 to i64
  %53 = icmp slt i64 %indvars.iv.next, %52
  br i1 %53, label %.lr.ph, label %.critedge, !llvm.loop !46

.critedge:                                        ; preds = %49, %1
  ret ptr %5
}